target datalayout = "e-m:e-p270:32:32-p271:32:32-p272:64:64-i64:64-i128:128-f80:128-n8:16:32:64-S128"
target triple = "x86_64-pc-linux-gnu"

%struct.AVChannelLayout = type { i32, i32, %union.anon, ptr }
%union.anon = type { i64 }
%struct.AACDecContext = type { ptr, ptr, %struct.AACDecDSP, %struct.AACDecProc, ptr, i32, %struct.DynamicRangeControl, [4 x [64 x ptr]], [4 x [64 x ptr]], i32, i32, [8 x i8], %union.anon.0, %union.anon.1, ptr, ptr, ptr, ptr, ptr, ptr, ptr, ptr, ptr, ptr, ptr, ptr, ptr, ptr, ptr, ptr, ptr, ptr, %union.anon.2, i32, [64 x ptr], i32, i32, i32, [2 x %struct.OutputConfiguration], i32, i32, i32, i32, i32, i32, [8 x i8] }
%struct.AACDecDSP = type { ptr, ptr, ptr, ptr, ptr, ptr, ptr, ptr, ptr, ptr, ptr, ptr, ptr, ptr, ptr }
%struct.AACDecProc = type { ptr, ptr, ptr, ptr, ptr, ptr }
%struct.DynamicRangeControl = type { i32, [17 x i32], [17 x i32], [64 x i32], i32, i32, [17 x i32], i32 }
%union.anon.0 = type { [1024 x i32] }
%union.anon.1 = type { [128 x i32] }
%union.anon.2 = type { ptr }
%struct.OutputConfiguration = type { %struct.MPEG4AudioConfig, [256 x [3 x i8]], i32, %struct.AVChannelLayout, i32, %struct.AACUSACConfig }
%struct.MPEG4AudioConfig = type { i32, i32, i32, i32, i32, i32, i32, i32, i32, i32, i32, i32 }
%struct.AACUSACConfig = type { i8, i16, i16, [64 x %struct.AACUsacElemConfig], i32, %struct.anon.6 }
%struct.AACUsacElemConfig = type { i32, i8, i8, %struct.anon, %struct.anon.4, %struct.anon.5 }
%struct.anon = type { i32, i8, %struct.anon.3 }
%struct.anon.3 = type { i8, i8, i8, i8, i8, i8, i8, i8 }
%struct.anon.4 = type { i8, i8, i8, i8, i8, i8, i8, i8, i8 }
%struct.anon.5 = type { i32, i8, i32, i32, ptr }
%struct.anon.6 = type { i8, i8, [64 x %struct.AACUSACLoudnessInfo], i8, i8, [64 x %struct.AACUSACLoudnessInfo] }
%struct.AACUSACLoudnessInfo = type <{ i16, %struct.anon.7, %struct.anon.8, i8, [16 x %struct.anon.9], i8 }>
%struct.anon.7 = type { i16 }
%struct.anon.8 = type { i32 }
%struct.anon.9 = type { i8, i8, i8 }
%struct.SingleChannelElement = type { %struct.IndividualChannelStream, %struct.AACUsacElemData, %struct.TemporalNoiseShaping, [128 x i32], [128 x i32], %union.anon.15, [12 x i8], %union.anon.16, %union.anon.17, %union.anon.18, %union.anon.19, %union.anon.20, %union.anon.21, %union.anon.22 }
%struct.IndividualChannelStream = type { i8, [2 x i32], [2 x i8], i32, i32, [8 x i8], %struct.LongTermPrediction, ptr, i32, i32, i32, i32, i32, i32, [41 x i8], [8 x i8] }
%struct.LongTermPrediction = type { i8, i16, %union.anon.10, [40 x i8] }
%union.anon.10 = type { i32 }
%struct.AACUsacElemData = type { i8, i8, i8, [16 x i8], %struct.anon.11, %struct.anon.12, %struct.anon.13, %struct.AACArithState }
%struct.anon.11 = type { i16, i32 }
%struct.anon.12 = type { i32, i8 }
%struct.anon.13 = type { i8, [8 x [8 x i32]] }
%struct.AACArithState = type { [513 x i8], i32, [4 x i8], i16 }
%struct.TemporalNoiseShaping = type { i32, [8 x i32], [8 x [4 x i32]], [8 x [4 x i32]], [8 x [4 x i32]], %union.anon.14 }
%union.anon.14 = type { [8 x [4 x [20 x i32]]] }
%union.anon.15 = type { [128 x i32] }
%union.anon.16 = type { [1024 x i32] }
%union.anon.17 = type { [1024 x i32] }
%union.anon.18 = type { [1536 x i32] }
%union.anon.19 = type { [2048 x i32] }
%union.anon.20 = type { [3072 x i32] }
%union.anon.21 = type { ptr }
%union.anon.22 = type { ptr }
%struct.AVFixedDSPContext = type { ptr, ptr, ptr, ptr, ptr, ptr, ptr }

@aac_kbd_long_1024_fixed = internal global [1024 x i32] zeroinitializer, align 16
@sine_1024_fixed = internal global [1024 x i32] zeroinitializer, align 16
@aac_kbd_short_128_fixed = internal global [128 x i32] zeroinitializer, align 16
@sine_128_fixed = internal global [128 x i32] zeroinitializer, align 16

; Function Attrs: nounwind uwtable
define internal void @update_ltp_fixed(ptr noundef %0, ptr noundef %1) #3 {
  %3 = alloca ptr, align 8
  %4 = alloca ptr, align 8
  %5 = alloca ptr, align 8
  %6 = alloca ptr, align 8
  %7 = alloca ptr, align 8
  %8 = alloca ptr, align 8
  %9 = alloca ptr, align 8
  %10 = alloca i32, align 4
  store ptr %0, ptr %3, align 8, !tbaa !29
  store ptr %1, ptr %4, align 8, !tbaa !66
  call void @llvm.lifetime.start.p0(i64 8, ptr %5) #13
  %11 = load ptr, ptr %4, align 8, !tbaa !66
  %12 = getelementptr inbounds nuw %struct.SingleChannelElement, ptr %11, i32 0, i32 0
  store ptr %12, ptr %5, align 8, !tbaa !68
  call void @llvm.lifetime.start.p0(i64 8, ptr %6) #13
  %13 = load ptr, ptr %4, align 8, !tbaa !66
  %14 = getelementptr inbounds nuw %struct.SingleChannelElement, ptr %13, i32 0, i32 9
  %15 = getelementptr inbounds [1536 x i32], ptr %14, i64 0, i64 0
  store ptr %15, ptr %6, align 8, !tbaa !70
  call void @llvm.lifetime.start.p0(i64 8, ptr %7) #13
  %16 = load ptr, ptr %4, align 8, !tbaa !66
  %17 = getelementptr inbounds nuw %struct.SingleChannelElement, ptr %16, i32 0, i32 7
  %18 = getelementptr inbounds [1024 x i32], ptr %17, i64 0, i64 0
  store ptr %18, ptr %7, align 8, !tbaa !70
  call void @llvm.lifetime.start.p0(i64 8, ptr %8) #13
  %19 = load ptr, ptr %5, align 8, !tbaa !68
  %20 = getelementptr inbounds nuw %struct.IndividualChannelStream, ptr %19, i32 0, i32 2
  %21 = getelementptr inbounds [2 x i8], ptr %20, i64 0, i64 0
  %22 = load i8, ptr %21, align 4, !tbaa !40
  %23 = zext i8 %22 to i32
  %24 = icmp ne i32 %23, 0
  %25 = select i1 %24, ptr @aac_kbd_long_1024_fixed, ptr @sine_1024_fixed
  store ptr %25, ptr %8, align 8, !tbaa !70
  call void @llvm.lifetime.start.p0(i64 8, ptr %9) #13
  %26 = load ptr, ptr %5, align 8, !tbaa !68
  %27 = getelementptr inbounds nuw %struct.IndividualChannelStream, ptr %26, i32 0, i32 2
  %28 = getelementptr inbounds [2 x i8], ptr %27, i64 0, i64 0
  %29 = load i8, ptr %28, align 4, !tbaa !40
  %30 = zext i8 %29 to i32
  %31 = icmp ne i32 %30, 0
  %32 = select i1 %31, ptr @aac_kbd_short_128_fixed, ptr @sine_128_fixed
  store ptr %32, ptr %9, align 8, !tbaa !70
  call void @llvm.lifetime.start.p0(i64 4, ptr %10) #13
  %33 = load ptr, ptr %5, align 8, !tbaa !68
  %34 = getelementptr inbounds nuw %struct.IndividualChannelStream, ptr %33, i32 0, i32 1
  %35 = getelementptr inbounds [2 x i32], ptr %34, i64 0, i64 0
  %36 = load i32, ptr %35, align 4, !tbaa !71
  %37 = icmp eq i32 %36, 2
  br i1 %37, label %38, label %88

38:                                               ; preds = %2
  %39 = load ptr, ptr %7, align 8, !tbaa !70
  %40 = load ptr, ptr %6, align 8, !tbaa !70
  call void @llvm.memcpy.p0.p0.i64(ptr align 4 %39, ptr align 4 %40, i64 2048, i1 false)
  %41 = load ptr, ptr %7, align 8, !tbaa !70
  %42 = getelementptr inbounds i32, ptr %41, i64 576
  call void @llvm.memset.p0.i64(ptr align 4 %42, i8 0, i64 1792, i1 false)
  %43 = load ptr, ptr %3, align 8, !tbaa !29
  %44 = getelementptr inbounds nuw %struct.AACDecContext, ptr %43, i32 0, i32 32
  %45 = load ptr, ptr %44, align 16, !tbaa !40
  %46 = getelementptr inbounds nuw %struct.AVFixedDSPContext, ptr %45, i32 0, i32 3
  %47 = load ptr, ptr %46, align 8, !tbaa !127
  %48 = load ptr, ptr %7, align 8, !tbaa !70
  %49 = getelementptr inbounds i32, ptr %48, i64 448
  %50 = load ptr, ptr %3, align 8, !tbaa !29
  %51 = getelementptr inbounds nuw %struct.AACDecContext, ptr %50, i32 0, i32 12
  %52 = getelementptr inbounds [1024 x i32], ptr %51, i64 0, i64 0
  %53 = getelementptr inbounds i32, ptr %52, i64 960
  %54 = load ptr, ptr %9, align 8, !tbaa !70
  %55 = getelementptr inbounds i32, ptr %54, i64 64
  call void %47(ptr noundef %49, ptr noundef %53, ptr noundef %55, i32 noundef 64)
  store i32 0, ptr %10, align 4, !tbaa !71
  br label %56

56:                                               ; preds = %84, %38
  %57 = load i32, ptr %10, align 4, !tbaa !71
  %58 = icmp slt i32 %57, 64
  br i1 %58, label %59, label %87

59:                                               ; preds = %56
  %60 = load ptr, ptr %3, align 8, !tbaa !29
  %61 = getelementptr inbounds nuw %struct.AACDecContext, ptr %60, i32 0, i32 12
  %62 = load i32, ptr %10, align 4, !tbaa !71
  %63 = sub nsw i32 1023, %62
  %64 = sext i32 %63 to i64
  %65 = getelementptr inbounds [1024 x i32], ptr %61, i64 0, i64 %64
  %66 = load i32, ptr %65, align 4, !tbaa !40
  %67 = sext i32 %66 to i64
  %68 = load ptr, ptr %9, align 8, !tbaa !70
  %69 = load i32, ptr %10, align 4, !tbaa !71
  %70 = sub nsw i32 63, %69
  %71 = sext i32 %70 to i64
  %72 = getelementptr inbounds i32, ptr %68, i64 %71
  %73 = load i32, ptr %72, align 4, !tbaa !71
  %74 = sext i32 %73 to i64
  %75 = mul nsw i64 %67, %74
  %76 = add nsw i64 %75, 1073741824
  %77 = ashr i64 %76, 31
  %78 = trunc i64 %77 to i32
  %79 = load ptr, ptr %7, align 8, !tbaa !70
  %80 = load i32, ptr %10, align 4, !tbaa !71
  %81 = add nsw i32 %80, 512
  %82 = sext i32 %81 to i64
  %83 = getelementptr inbounds i32, ptr %79, i64 %82
  store i32 %78, ptr %83, align 4, !tbaa !71
  br label %84

84:                                               ; preds = %59
  %85 = load i32, ptr %10, align 4, !tbaa !71
  %86 = add nsw i32 %85, 1
  store i32 %86, ptr %10, align 4, !tbaa !71
  br label %56, !llvm.loop !128

87:                                               ; preds = %56
  br label %193

88:                                               ; preds = %2
  %89 = load ptr, ptr %5, align 8, !tbaa !68
  %90 = getelementptr inbounds nuw %struct.IndividualChannelStream, ptr %89, i32 0, i32 1
  %91 = getelementptr inbounds [2 x i32], ptr %90, i64 0, i64 0
  %92 = load i32, ptr %91, align 4, !tbaa !71
  %93 = icmp eq i32 %92, 1
  br i1 %93, label %94, label %147

94:                                               ; preds = %88
  %95 = load ptr, ptr %7, align 8, !tbaa !70
  %96 = load ptr, ptr %3, align 8, !tbaa !29
  %97 = getelementptr inbounds nuw %struct.AACDecContext, ptr %96, i32 0, i32 12
  %98 = getelementptr inbounds [1024 x i32], ptr %97, i64 0, i64 0
  %99 = getelementptr inbounds i32, ptr %98, i64 512
  call void @llvm.memcpy.p0.p0.i64(ptr align 4 %95, ptr align 4 %99, i64 1792, i1 false)
  %100 = load ptr, ptr %7, align 8, !tbaa !70
  %101 = getelementptr inbounds i32, ptr %100, i64 576
  call void @llvm.memset.p0.i64(ptr align 4 %101, i8 0, i64 1792, i1 false)
  %102 = load ptr, ptr %3, align 8, !tbaa !29
  %103 = getelementptr inbounds nuw %struct.AACDecContext, ptr %102, i32 0, i32 32
  %104 = load ptr, ptr %103, align 16, !tbaa !40
  %105 = getelementptr inbounds nuw %struct.AVFixedDSPContext, ptr %104, i32 0, i32 3
  %106 = load ptr, ptr %105, align 8, !tbaa !127
  %107 = load ptr, ptr %7, align 8, !tbaa !70
  %108 = getelementptr inbounds i32, ptr %107, i64 448
  %109 = load ptr, ptr %3, align 8, !tbaa !29
  %110 = getelementptr inbounds nuw %struct.AACDecContext, ptr %109, i32 0, i32 12
  %111 = getelementptr inbounds [1024 x i32], ptr %110, i64 0, i64 0
  %112 = getelementptr inbounds i32, ptr %111, i64 960
  %113 = load ptr, ptr %9, align 8, !tbaa !70
  %114 = getelementptr inbounds i32, ptr %113, i64 64
  call void %106(ptr noundef %108, ptr noundef %112, ptr noundef %114, i32 noundef 64)
  store i32 0, ptr %10, align 4, !tbaa !71
  br label %115

115:                                              ; preds = %143, %94
  %116 = load i32, ptr %10, align 4, !tbaa !71
  %117 = icmp slt i32 %116, 64
  br i1 %117, label %118, label %146

118:                                              ; preds = %115
  %119 = load ptr, ptr %3, align 8, !tbaa !29
  %120 = getelementptr inbounds nuw %struct.AACDecContext, ptr %119, i32 0, i32 12
  %121 = load i32, ptr %10, align 4, !tbaa !71
  %122 = sub nsw i32 1023, %121
  %123 = sext i32 %122 to i64
  %124 = getelementptr inbounds [1024 x i32], ptr %120, i64 0, i64 %123
  %125 = load i32, ptr %124, align 4, !tbaa !40
  %126 = sext i32 %125 to i64
  %127 = load ptr, ptr %9, align 8, !tbaa !70
  %128 = load i32, ptr %10, align 4, !tbaa !71
  %129 = sub nsw i32 63, %128
  %130 = sext i32 %129 to i64
  %131 = getelementptr inbounds i32, ptr %127, i64 %130
  %132 = load i32, ptr %131, align 4, !tbaa !71
  %133 = sext i32 %132 to i64
  %134 = mul nsw i64 %126, %133
  %135 = add nsw i64 %134, 1073741824
  %136 = ashr i64 %135, 31
  %137 = trunc i64 %136 to i32
  %138 = load ptr, ptr %7, align 8, !tbaa !70
  %139 = load i32, ptr %10, align 4, !tbaa !71
  %140 = add nsw i32 %139, 512
  %141 = sext i32 %140 to i64
  %142 = getelementptr inbounds i32, ptr %138, i64 %141
  store i32 %137, ptr %142, align 4, !tbaa !71
  br label %143

143:                                              ; preds = %118
  %144 = load i32, ptr %10, align 4, !tbaa !71
  %145 = add nsw i32 %144, 1
  store i32 %145, ptr %10, align 4, !tbaa !71
  br label %115, !llvm.loop !129

146:                                              ; preds = %115
  br label %192

147:                                              ; preds = %88
  %148 = load ptr, ptr %3, align 8, !tbaa !29
  %149 = getelementptr inbounds nuw %struct.AACDecContext, ptr %148, i32 0, i32 32
  %150 = load ptr, ptr %149, align 16, !tbaa !40
  %151 = getelementptr inbounds nuw %struct.AVFixedDSPContext, ptr %150, i32 0, i32 3
  %152 = load ptr, ptr %151, align 8, !tbaa !127
  %153 = load ptr, ptr %7, align 8, !tbaa !70
  %154 = load ptr, ptr %3, align 8, !tbaa !29
  %155 = getelementptr inbounds nuw %struct.AACDecContext, ptr %154, i32 0, i32 12
  %156 = getelementptr inbounds [1024 x i32], ptr %155, i64 0, i64 0
  %157 = getelementptr inbounds i32, ptr %156, i64 512
  %158 = load ptr, ptr %8, align 8, !tbaa !70
  %159 = getelementptr inbounds i32, ptr %158, i64 512
  call void %152(ptr noundef %153, ptr noundef %157, ptr noundef %159, i32 noundef 512)
  store i32 0, ptr %10, align 4, !tbaa !71
  br label %160

160:                                              ; preds = %188, %147
  %161 = load i32, ptr %10, align 4, !tbaa !71
  %162 = icmp slt i32 %161, 512
  br i1 %162, label %163, label %191

163:                                              ; preds = %160
  %164 = load ptr, ptr %3, align 8, !tbaa !29
  %165 = getelementptr inbounds nuw %struct.AACDecContext, ptr %164, i32 0, i32 12
  %166 = load i32, ptr %10, align 4, !tbaa !71
  %167 = sub nsw i32 1023, %166
  %168 = sext i32 %167 to i64
  %169 = getelementptr inbounds [1024 x i32], ptr %165, i64 0, i64 %168
  %170 = load i32, ptr %169, align 4, !tbaa !40
  %171 = sext i32 %170 to i64
  %172 = load ptr, ptr %8, align 8, !tbaa !70
  %173 = load i32, ptr %10, align 4, !tbaa !71
  %174 = sub nsw i32 511, %173
  %175 = sext i32 %174 to i64
  %176 = getelementptr inbounds i32, ptr %172, i64 %175
  %177 = load i32, ptr %176, align 4, !tbaa !71
  %178 = sext i32 %177 to i64
  %179 = mul nsw i64 %171, %178
  %180 = add nsw i64 %179, 1073741824
  %181 = ashr i64 %180, 31
  %182 = trunc i64 %181 to i32
  %183 = load ptr, ptr %7, align 8, !tbaa !70
  %184 = load i32, ptr %10, align 4, !tbaa !71
  %185 = add nsw i32 %184, 512
  %186 = sext i32 %185 to i64
  %187 = getelementptr inbounds i32, ptr %183, i64 %186
  store i32 %182, ptr %187, align 4, !tbaa !71
  br label %188

188:                                              ; preds = %163
  %189 = load i32, ptr %10, align 4, !tbaa !71
  %190 = add nsw i32 %189, 1
  store i32 %190, ptr %10, align 4, !tbaa !71
  br label %160, !llvm.loop !130

191:                                              ; preds = %160
  br label %192

192:                                              ; preds = %191, %146
  br label %193

193:                                              ; preds = %192, %87
  %194 = load ptr, ptr %4, align 8, !tbaa !66
  %195 = getelementptr inbounds nuw %struct.SingleChannelElement, ptr %194, i32 0, i32 11
  %196 = getelementptr inbounds [3072 x i32], ptr %195, i64 0, i64 0
  %197 = load ptr, ptr %4, align 8, !tbaa !66
  %198 = getelementptr inbounds nuw %struct.SingleChannelElement, ptr %197, i32 0, i32 11
  %199 = getelementptr inbounds [3072 x i32], ptr %198, i64 0, i64 0
  %200 = getelementptr inbounds i32, ptr %199, i64 1024
  call void @llvm.memcpy.p0.p0.i64(ptr align 16 %196, ptr align 4 %200, i64 4096, i1 false)
  %201 = load ptr, ptr %4, align 8, !tbaa !66
  %202 = getelementptr inbounds nuw %struct.SingleChannelElement, ptr %201, i32 0, i32 11
  %203 = getelementptr inbounds [3072 x i32], ptr %202, i64 0, i64 0
  %204 = getelementptr inbounds i32, ptr %203, i64 1024
  %205 = load ptr, ptr %4, align 8, !tbaa !66
  %206 = getelementptr inbounds nuw %struct.SingleChannelElement, ptr %205, i32 0, i32 13
  %207 = load ptr, ptr %206, align 8, !tbaa !40
  call void @llvm.memcpy.p0.p0.i64(ptr align 4 %204, ptr align 4 %207, i64 4096, i1 false)
  %208 = load ptr, ptr %4, align 8, !tbaa !66
  %209 = getelementptr inbounds nuw %struct.SingleChannelElement, ptr %208, i32 0, i32 11
  %210 = getelementptr inbounds [3072 x i32], ptr %209, i64 0, i64 0
  %211 = getelementptr inbounds i32, ptr %210, i64 2048
  %212 = load ptr, ptr %7, align 8, !tbaa !70
  call void @llvm.memcpy.p0.p0.i64(ptr align 4 %211, ptr align 4 %212, i64 4096, i1 false)
  call void @llvm.lifetime.end.p0(i64 4, ptr %10) #13
  call void @llvm.lifetime.end.p0(i64 8, ptr %9) #13
  call void @llvm.lifetime.end.p0(i64 8, ptr %8) #13
  call void @llvm.lifetime.end.p0(i64 8, ptr %7) #13
  call void @llvm.lifetime.end.p0(i64 8, ptr %6) #13
  call void @llvm.lifetime.end.p0(i64 8, ptr %5) #13
  ret void
}