; Function Attrs: nounwind uwtable
define internal void @update_ltp_fixed(ptr noundef %0, ptr noundef %1) #5 {
  %3 = getelementptr inbounds nuw i8, ptr %1, i64 5520
  %4 = getelementptr inbounds nuw i8, ptr %1, i64 12
  %5 = load i8, ptr %4, align 4, !tbaa !58
  %.not = icmp eq i8 %5, 0
  %6 = select i1 %.not, ptr @sine_1024_fixed, ptr @aac_kbd_long_1024_fixed
  %7 = select i1 %.not, ptr @sine_128_fixed, ptr @aac_kbd_short_128_fixed
  %8 = getelementptr inbounds nuw i8, ptr %1, i64 4
  %9 = load i32, ptr %8, align 4, !tbaa !64
  switch i32 %9, label %58 [
    i32 2, label %10
    i32 1, label %34
  ]

10:                                               ; preds = %2
  %11 = getelementptr inbounds nuw i8, ptr %1, i64 13712
  tail call void @llvm.memcpy.p0.p0.i64(ptr noundef nonnull align 4 dereferenceable(2048) %3, ptr noundef nonnull align 4 dereferenceable(2048) %11, i64 2048, i1 false)
  %12 = getelementptr inbounds nuw i8, ptr %1, i64 7824
  tail call void @llvm.memset.p0.i64(ptr noundef nonnull align 4 dereferenceable(1792) %12, i8 0, i64 1792, i1 false)
  %13 = getelementptr inbounds nuw i8, ptr %0, i64 9536
  %14 = load ptr, ptr %13, align 16, !tbaa !58
  %15 = getelementptr inbounds nuw i8, ptr %14, i64 24
  %16 = load ptr, ptr %15, align 8, !tbaa !108
  %17 = getelementptr inbounds nuw i8, ptr %1, i64 7312
  %18 = getelementptr inbounds nuw i8, ptr %0, i64 4784
  %19 = getelementptr inbounds nuw i8, ptr %0, i64 8624
  %20 = select i1 %.not, ptr getelementptr inbounds nuw (i8, ptr @sine_128_fixed, i64 256), ptr getelementptr inbounds nuw (i8, ptr @aac_kbd_short_128_fixed, i64 256)
  tail call void %16(ptr noundef nonnull %17, ptr noundef nonnull %19, ptr noundef nonnull %20, i32 noundef 64) #14
  %invariant.gep58 = getelementptr inbounds nuw i8, ptr %1, i64 7568
  br label %21

21:                                               ; preds = %10, %21
  %indvars.iv67 = phi i64 [ 0, %10 ], [ %indvars.iv.next68, %21 ]
  %22 = sub nuw nsw i64 1023, %indvars.iv67
  %23 = getelementptr inbounds nuw [1024 x i32], ptr %18, i64 0, i64 %22
  %24 = load i32, ptr %23, align 4, !tbaa !58
  %25 = sext i32 %24 to i64
  %26 = sub nuw nsw i64 63, %indvars.iv67
  %27 = getelementptr inbounds nuw i32, ptr %7, i64 %26
  %28 = load i32, ptr %27, align 4, !tbaa !64
  %29 = sext i32 %28 to i64
  %30 = mul nsw i64 %29, %25
  %31 = add nsw i64 %30, 1073741824
  %32 = lshr i64 %31, 31
  %33 = trunc i64 %32 to i32
  %gep59 = getelementptr inbounds nuw i32, ptr %invariant.gep58, i64 %indvars.iv67
  store i32 %33, ptr %gep59, align 4, !tbaa !64
  %indvars.iv.next68 = add nuw nsw i64 %indvars.iv67, 1
  %exitcond70.not = icmp eq i64 %indvars.iv.next68, 64
  br i1 %exitcond70.not, label %.loopexit, label %21, !llvm.loop !115

34:                                               ; preds = %2
  %35 = getelementptr inbounds nuw i8, ptr %0, i64 4784
  %36 = getelementptr inbounds nuw i8, ptr %0, i64 6832
  tail call void @llvm.memcpy.p0.p0.i64(ptr noundef nonnull align 4 dereferenceable(1792) %3, ptr noundef nonnull align 4 dereferenceable(1792) %36, i64 1792, i1 false)
  %37 = getelementptr inbounds nuw i8, ptr %1, i64 7824
  tail call void @llvm.memset.p0.i64(ptr noundef nonnull align 4 dereferenceable(1792) %37, i8 0, i64 1792, i1 false)
  %38 = getelementptr inbounds nuw i8, ptr %0, i64 9536
  %39 = load ptr, ptr %38, align 16, !tbaa !58
  %40 = getelementptr inbounds nuw i8, ptr %39, i64 24
  %41 = load ptr, ptr %40, align 8, !tbaa !108
  %42 = getelementptr inbounds nuw i8, ptr %1, i64 7312
  %43 = getelementptr inbounds nuw i8, ptr %0, i64 8624
  %44 = select i1 %.not, ptr getelementptr inbounds nuw (i8, ptr @sine_128_fixed, i64 256), ptr getelementptr inbounds nuw (i8, ptr @aac_kbd_short_128_fixed, i64 256)
  tail call void %41(ptr noundef nonnull %42, ptr noundef nonnull %43, ptr noundef nonnull %44, i32 noundef 64) #14
  %invariant.gep = getelementptr inbounds nuw i8, ptr %1, i64 7568
  br label %45

45:                                               ; preds = %34, %45
  %indvars.iv = phi i64 [ 0, %34 ], [ %indvars.iv.next, %45 ]
  %46 = sub nuw nsw i64 1023, %indvars.iv
  %47 = getelementptr inbounds nuw [1024 x i32], ptr %35, i64 0, i64 %46
  %48 = load i32, ptr %47, align 4, !tbaa !58
  %49 = sext i32 %48 to i64
  %50 = sub nuw nsw i64 63, %indvars.iv
  %51 = getelementptr inbounds nuw i32, ptr %7, i64 %50
  %52 = load i32, ptr %51, align 4, !tbaa !64
  %53 = sext i32 %52 to i64
  %54 = mul nsw i64 %53, %49
  %55 = add nsw i64 %54, 1073741824
  %56 = lshr i64 %55, 31
  %57 = trunc i64 %56 to i32
  %gep = getelementptr inbounds nuw i32, ptr %invariant.gep, i64 %indvars.iv
  store i32 %57, ptr %gep, align 4, !tbaa !64
  %indvars.iv.next = add nuw nsw i64 %indvars.iv, 1
  %exitcond.not = icmp eq i64 %indvars.iv.next, 64
  br i1 %exitcond.not, label %.loopexit, label %45, !llvm.loop !116

58:                                               ; preds = %2
  %59 = getelementptr inbounds nuw i8, ptr %0, i64 9536
  %60 = load ptr, ptr %59, align 16, !tbaa !58
  %61 = getelementptr inbounds nuw i8, ptr %60, i64 24
  %62 = load ptr, ptr %61, align 8, !tbaa !108
  %63 = getelementptr inbounds nuw i8, ptr %0, i64 4784
  %64 = getelementptr inbounds nuw i8, ptr %0, i64 6832
  %65 = select i1 %.not, ptr getelementptr inbounds nuw (i8, ptr @sine_1024_fixed, i64 2048), ptr getelementptr inbounds nuw (i8, ptr @aac_kbd_long_1024_fixed, i64 2048)
  tail call void %62(ptr noundef nonnull %3, ptr noundef nonnull %64, ptr noundef nonnull %65, i32 noundef 512) #14
  %invariant.gep61 = getelementptr inbounds nuw i8, ptr %1, i64 7568
  br label %66

66:                                               ; preds = %58, %66
  %indvars.iv71 = phi i64 [ 0, %58 ], [ %indvars.iv.next72, %66 ]
  %67 = sub nuw nsw i64 1023, %indvars.iv71
  %68 = getelementptr inbounds nuw [1024 x i32], ptr %63, i64 0, i64 %67
  %69 = load i32, ptr %68, align 4, !tbaa !58
  %70 = sext i32 %69 to i64
  %71 = sub nuw nsw i64 511, %indvars.iv71
  %72 = getelementptr inbounds nuw i32, ptr %6, i64 %71
  %73 = load i32, ptr %72, align 4, !tbaa !64
  %74 = sext i32 %73 to i64
  %75 = mul nsw i64 %74, %70
  %76 = add nsw i64 %75, 1073741824
  %77 = lshr i64 %76, 31
  %78 = trunc i64 %77 to i32
  %gep62 = getelementptr inbounds nuw i32, ptr %invariant.gep61, i64 %indvars.iv71
  store i32 %78, ptr %gep62, align 4, !tbaa !64
  %indvars.iv.next72 = add nuw nsw i64 %indvars.iv71, 1
  %exitcond74.not = icmp eq i64 %indvars.iv.next72, 512
  br i1 %exitcond74.not, label %.loopexit, label %66, !llvm.loop !117

.loopexit:                                        ; preds = %45, %21, %66
  %79 = getelementptr inbounds nuw i8, ptr %1, i64 28048
  %80 = getelementptr inbounds nuw i8, ptr %1, i64 32144
  tail call void @llvm.memcpy.p0.p0.i64(ptr noundef nonnull align 16 dereferenceable(4096) %79, ptr noundef nonnull align 4 dereferenceable(4096) %80, i64 4096, i1 false)
  %81 = getelementptr inbounds nuw i8, ptr %1, i64 40344
  %82 = load ptr, ptr %81, align 8, !tbaa !58
  tail call void @llvm.memcpy.p0.p0.i64(ptr noundef nonnull align 4 dereferenceable(4096) %80, ptr noundef nonnull align 4 dereferenceable(4096) %82, i64 4096, i1 false)
  %83 = getelementptr inbounds nuw i8, ptr %1, i64 36240
  tail call void @llvm.memcpy.p0.p0.i64(ptr noundef nonnull align 4 dereferenceable(4096) %83, ptr noundef nonnull align 4 dereferenceable(4096) %3, i64 4096, i1 false)
  ret void
}